target datalayout = "e-m:e-p270:32:32-p271:32:32-p272:64:64-i64:64-i128:128-f80:128-n8:16:32:64-S128"
target triple = "x86_64-pc-linux-gnu"

%struct.ieee802154_packet = type { i32, i32, i32, i32, i8, i8, i8, i8, i8, i8, i8, i8, i8, i8, i8, i8, i16, i16, i16, i64, i16, i64, i32, i32, i8, i32, i8, i64, %union.anon, i8, i8, ptr }
%union.anon = type { i64 }
%struct._proto_node = type { ptr, ptr, ptr, ptr, ptr, ptr, ptr }
%struct.field_info = type { ptr, i32, i32, i32, i32, i32, i32, ptr, ptr, ptr, i32, i32 }

@hf_ieee802154_aux_security_header = internal global i32 0, align 4
@ett_ieee802154_auxiliary_security = internal global i32 0, align 4
@hf_ieee802154_aux_sec_security_control = internal global i32 0, align 4
@ett_ieee802154_aux_sec_control = internal global i32 0, align 4
@hf_ieee802154_aux_sec_frame_counter = internal global i32 0, align 4
@ieee802154_tsch_asn = internal global i64 0, align 8
@ett_ieee802154_aux_sec_key_id = internal global i32 0, align 4
@.str.17 = private unnamed_addr constant [21 x i8] c"Key Identifier Field\00", align 1
@hf_ieee802154_aux_sec_key_source = internal global i32 0, align 4
@hf_ieee802154_aux_sec_key_source_bytes = internal global i32 0, align 4
@hf_ieee802154_aux_sec_key_index = internal global i32 0, align 4

; Function Attrs: inlinehint nounwind null_pointer_is_valid sspstrong uwtable
define internal void @proto_item_set_hidden(ptr noundef %0) #4 {
  %2 = alloca ptr, align 8
  store ptr %0, ptr %2, align 8
  %3 = load ptr, ptr %2, align 8
  %4 = icmp ne ptr %3, null
  br i1 %4, label %5, label %24

5:                                                ; preds = %1
  br label %6

6:                                                ; preds = %5
  %7 = load ptr, ptr %2, align 8
  %8 = getelementptr inbounds nuw %struct._proto_node, ptr %7, i32 0, i32 5
  %9 = load ptr, ptr %8, align 8
  %10 = icmp ne ptr %9, null
  br i1 %10, label %11, label %22

11:                                               ; preds = %6
  %12 = load ptr, ptr %2, align 8
  %13 = getelementptr inbounds nuw %struct._proto_node, ptr %12, i32 0, i32 5
  %14 = load ptr, ptr %13, align 8
  %15 = getelementptr inbounds nuw %struct.field_info, ptr %14, i32 0, i32 6
  %16 = load i32, ptr %15, align 4
  %17 = or i32 %16, 1
  %18 = load ptr, ptr %2, align 8
  %19 = getelementptr inbounds nuw %struct._proto_node, ptr %18, i32 0, i32 5
  %20 = load ptr, ptr %19, align 8
  %21 = getelementptr inbounds nuw %struct.field_info, ptr %20, i32 0, i32 6
  store i32 %17, ptr %21, align 4
  br label %22

22:                                               ; preds = %11, %6
  br label %23

23:                                               ; preds = %22
  br label %24

24:                                               ; preds = %23, %1
  ret void
}

; Function Attrs: null_pointer_is_valid sspstrong uwtable
define hidden void @dissect_ieee802154_aux_sec_header_and_key(ptr noundef %0, ptr noundef %1, ptr noundef %2, ptr noundef %3, ptr noundef %4) #0 {
  %6 = alloca ptr, align 8
  %7 = alloca ptr, align 8
  %8 = alloca ptr, align 8
  %9 = alloca ptr, align 8
  %10 = alloca ptr, align 8
  %11 = alloca ptr, align 8
  %12 = alloca ptr, align 8
  %13 = alloca ptr, align 8
  %14 = alloca ptr, align 8
  %15 = alloca i8, align 1
  %16 = alloca i32, align 4
  store ptr %0, ptr %6, align 8
  store ptr %1, ptr %7, align 8
  store ptr %2, ptr %8, align 8
  store ptr %3, ptr %9, align 8
  store ptr %4, ptr %10, align 8
  call void @llvm.lifetime.start.p0(i64 8, ptr %11) #17
  call void @llvm.lifetime.start.p0(i64 8, ptr %12) #17
  call void @llvm.lifetime.start.p0(i64 8, ptr %13) #17
  call void @llvm.lifetime.start.p0(i64 8, ptr %14) #17
  call void @llvm.lifetime.start.p0(i64 1, ptr %15) #17
  call void @llvm.lifetime.start.p0(i64 4, ptr %16) #17
  store i32 1, ptr %16, align 4
  %17 = load ptr, ptr %6, align 8
  %18 = load ptr, ptr %10, align 8
  %19 = load i32, ptr %18, align 4
  %20 = call zeroext i8 @tvb_get_uint8(ptr noundef %17, i32 noundef %19)
  store i8 %20, ptr %15, align 1
  %21 = load i8, ptr %15, align 1
  %22 = zext i8 %21 to i32
  %23 = and i32 %22, 7
  %24 = load ptr, ptr %9, align 8
  %25 = getelementptr inbounds nuw %struct.ieee802154_packet, ptr %24, i32 0, i32 22
  store i32 %23, ptr %25, align 8
  %26 = load i8, ptr %15, align 1
  %27 = zext i8 %26 to i32
  %28 = and i32 %27, 24
  %29 = ashr i32 %28, 3
  %30 = load ptr, ptr %9, align 8
  %31 = getelementptr inbounds nuw %struct.ieee802154_packet, ptr %30, i32 0, i32 23
  store i32 %29, ptr %31, align 4
  %32 = load ptr, ptr %9, align 8
  %33 = getelementptr inbounds nuw %struct.ieee802154_packet, ptr %32, i32 0, i32 0
  %34 = load i32, ptr %33, align 8
  %35 = icmp eq i32 %34, 2
  br i1 %35, label %36, label %46

36:                                               ; preds = %5
  %37 = load i8, ptr %15, align 1
  %38 = zext i8 %37 to i32
  %39 = and i32 %38, 32
  %40 = icmp ne i32 %39, 0
  %41 = select i1 %40, i32 1, i32 0
  %42 = icmp ne i32 %41, 0
  %43 = load ptr, ptr %9, align 8
  %44 = getelementptr inbounds nuw %struct.ieee802154_packet, ptr %43, i32 0, i32 24
  %45 = zext i1 %42 to i8
  store i8 %45, ptr %44, align 8
  br label %46

46:                                               ; preds = %36, %5
  %47 = load ptr, ptr %9, align 8
  %48 = getelementptr inbounds nuw %struct.ieee802154_packet, ptr %47, i32 0, i32 24
  %49 = load i8, ptr %48, align 8, !range !6, !noundef !7
  %50 = trunc i8 %49 to i1
  br i1 %50, label %54, label %51

51:                                               ; preds = %46
  %52 = load i32, ptr %16, align 4
  %53 = add i32 %52, 4
  store i32 %53, ptr %16, align 4
  br label %54

54:                                               ; preds = %51, %46
  %55 = load ptr, ptr %9, align 8
  %56 = getelementptr inbounds nuw %struct.ieee802154_packet, ptr %55, i32 0, i32 23
  %57 = load i32, ptr %56, align 4
  %58 = icmp ne i32 %57, 0
  br i1 %58, label %59, label %62

59:                                               ; preds = %54
  %60 = load i32, ptr %16, align 4
  %61 = add i32 %60, 1
  store i32 %61, ptr %16, align 4
  br label %62

62:                                               ; preds = %59, %54
  %63 = load ptr, ptr %9, align 8
  %64 = getelementptr inbounds nuw %struct.ieee802154_packet, ptr %63, i32 0, i32 23
  %65 = load i32, ptr %64, align 4
  %66 = icmp eq i32 %65, 2
  br i1 %66, label %67, label %70

67:                                               ; preds = %62
  %68 = load i32, ptr %16, align 4
  %69 = add i32 %68, 4
  store i32 %69, ptr %16, align 4
  br label %70

70:                                               ; preds = %67, %62
  %71 = load ptr, ptr %9, align 8
  %72 = getelementptr inbounds nuw %struct.ieee802154_packet, ptr %71, i32 0, i32 23
  %73 = load i32, ptr %72, align 4
  %74 = icmp eq i32 %73, 3
  br i1 %74, label %75, label %78

75:                                               ; preds = %70
  %76 = load i32, ptr %16, align 4
  %77 = add i32 %76, 8
  store i32 %77, ptr %16, align 4
  br label %78

78:                                               ; preds = %75, %70
  %79 = load ptr, ptr %8, align 8
  %80 = load i32, ptr @hf_ieee802154_aux_security_header, align 4
  %81 = load ptr, ptr %6, align 8
  %82 = load ptr, ptr %10, align 8
  %83 = load i32, ptr %82, align 4
  %84 = load i32, ptr %16, align 4
  %85 = call ptr @proto_tree_add_item(ptr noundef %79, i32 noundef %80, ptr noundef %81, i32 noundef %83, i32 noundef %84, i32 noundef 0)
  store ptr %85, ptr %13, align 8
  %86 = load ptr, ptr %13, align 8
  %87 = load i32, ptr @ett_ieee802154_auxiliary_security, align 4
  %88 = call ptr @proto_item_add_subtree(ptr noundef %86, i32 noundef %87)
  store ptr %88, ptr %12, align 8
  %89 = load ptr, ptr %12, align 8
  %90 = load ptr, ptr %6, align 8
  %91 = load ptr, ptr %10, align 8
  %92 = load i32, ptr %91, align 4
  %93 = load i32, ptr @hf_ieee802154_aux_sec_security_control, align 4
  %94 = load i32, ptr @ett_ieee802154_aux_sec_control, align 4
  %95 = call ptr @proto_tree_add_bitmask(ptr noundef %89, ptr noundef %90, i32 noundef %92, i32 noundef %93, i32 noundef %94, ptr noundef @dissect_ieee802154_aux_sec_header_and_key.security_fields, i32 noundef 0)
  %96 = load ptr, ptr %10, align 8
  %97 = load i32, ptr %96, align 4
  %98 = add i32 %97, 1
  store i32 %98, ptr %96, align 4
  %99 = load ptr, ptr %9, align 8
  %100 = getelementptr inbounds nuw %struct.ieee802154_packet, ptr %99, i32 0, i32 24
  %101 = load i8, ptr %100, align 8, !range !6, !noundef !7
  %102 = trunc i8 %101 to i1
  br i1 %102, label %115, label %103

103:                                              ; preds = %78
  %104 = load ptr, ptr %12, align 8
  %105 = load i32, ptr @hf_ieee802154_aux_sec_frame_counter, align 4
  %106 = load ptr, ptr %6, align 8
  %107 = load ptr, ptr %10, align 8
  %108 = load i32, ptr %107, align 4
  %109 = load ptr, ptr %9, align 8
  %110 = getelementptr inbounds nuw %struct.ieee802154_packet, ptr %109, i32 0, i32 25
  %111 = call ptr @proto_tree_add_item_ret_uint(ptr noundef %104, i32 noundef %105, ptr noundef %106, i32 noundef %108, i32 noundef 4, i32 noundef -2147483648, ptr noundef %110)
  %112 = load ptr, ptr %10, align 8
  %113 = load i32, ptr %112, align 4
  %114 = add i32 %113, 4
  store i32 %114, ptr %112, align 4
  br label %119

115:                                              ; preds = %78
  %116 = load i64, ptr @ieee802154_tsch_asn, align 8
  %117 = load ptr, ptr %9, align 8
  %118 = getelementptr inbounds nuw %struct.ieee802154_packet, ptr %117, i32 0, i32 27
  store i64 %116, ptr %118, align 8
  br label %119

119:                                              ; preds = %115, %103
  %120 = load ptr, ptr %9, align 8
  %121 = getelementptr inbounds nuw %struct.ieee802154_packet, ptr %120, i32 0, i32 23
  %122 = load i32, ptr %121, align 4
  %123 = icmp ne i32 %122, 0
  br i1 %123, label %124, label %215

124:                                              ; preds = %119
  %125 = load ptr, ptr %12, align 8
  %126 = load ptr, ptr %6, align 8
  %127 = load ptr, ptr %10, align 8
  %128 = load i32, ptr %127, align 4
  %129 = load i32, ptr @ett_ieee802154_aux_sec_key_id, align 4
  %130 = call ptr @proto_tree_add_subtree(ptr noundef %125, ptr noundef %126, i32 noundef %128, i32 noundef 1, i32 noundef %129, ptr noundef %13, ptr noundef @.str.17)
  store ptr %130, ptr %11, align 8
  %131 = load ptr, ptr %9, align 8
  %132 = getelementptr inbounds nuw %struct.ieee802154_packet, ptr %131, i32 0, i32 23
  %133 = load i32, ptr %132, align 4
  %134 = icmp eq i32 %133, 2
  br i1 %134, label %135, label %163

135:                                              ; preds = %124
  %136 = load ptr, ptr %6, align 8
  %137 = load ptr, ptr %10, align 8
  %138 = load i32, ptr %137, align 4
  %139 = call i32 @tvb_get_ntohl(ptr noundef %136, i32 noundef %138)
  %140 = load ptr, ptr %9, align 8
  %141 = getelementptr inbounds nuw %struct.ieee802154_packet, ptr %140, i32 0, i32 28
  store i32 %139, ptr %141, align 8
  %142 = load ptr, ptr %11, align 8
  %143 = load i32, ptr @hf_ieee802154_aux_sec_key_source, align 4
  %144 = load ptr, ptr %6, align 8
  %145 = load ptr, ptr %10, align 8
  %146 = load i32, ptr %145, align 4
  %147 = load ptr, ptr %9, align 8
  %148 = getelementptr inbounds nuw %struct.ieee802154_packet, ptr %147, i32 0, i32 28
  %149 = load i32, ptr %148, align 8
  %150 = zext i32 %149 to i64
  %151 = call ptr @proto_tree_add_uint64(ptr noundef %142, i32 noundef %143, ptr noundef %144, i32 noundef %146, i32 noundef 4, i64 noundef %150)
  %152 = load ptr, ptr %11, align 8
  %153 = load i32, ptr @hf_ieee802154_aux_sec_key_source_bytes, align 4
  %154 = load ptr, ptr %6, align 8
  %155 = load ptr, ptr %10, align 8
  %156 = load i32, ptr %155, align 4
  %157 = call ptr @proto_tree_add_item(ptr noundef %152, i32 noundef %153, ptr noundef %154, i32 noundef %156, i32 noundef 4, i32 noundef 0)
  store ptr %157, ptr %14, align 8
  %158 = load ptr, ptr %14, align 8
  call void @proto_item_set_hidden(ptr noundef %158)
  %159 = load ptr, ptr %13, align 8
  call void @proto_item_set_len(ptr noundef %159, i32 noundef 5)
  %160 = load ptr, ptr %10, align 8
  %161 = load i32, ptr %160, align 4
  %162 = add i32 %161, 4
  store i32 %162, ptr %160, align 4
  br label %163

163:                                              ; preds = %135, %124
  %164 = load ptr, ptr %9, align 8
  %165 = getelementptr inbounds nuw %struct.ieee802154_packet, ptr %164, i32 0, i32 23
  %166 = load i32, ptr %165, align 4
  %167 = icmp eq i32 %166, 3
  br i1 %167, label %168, label %195

168:                                              ; preds = %163
  %169 = load ptr, ptr %6, align 8
  %170 = load ptr, ptr %10, align 8
  %171 = load i32, ptr %170, align 4
  %172 = call i64 @tvb_get_ntoh64(ptr noundef %169, i32 noundef %171)
  %173 = load ptr, ptr %9, align 8
  %174 = getelementptr inbounds nuw %struct.ieee802154_packet, ptr %173, i32 0, i32 28
  store i64 %172, ptr %174, align 8
  %175 = load ptr, ptr %11, align 8
  %176 = load i32, ptr @hf_ieee802154_aux_sec_key_source, align 4
  %177 = load ptr, ptr %6, align 8
  %178 = load ptr, ptr %10, align 8
  %179 = load i32, ptr %178, align 4
  %180 = load ptr, ptr %9, align 8
  %181 = getelementptr inbounds nuw %struct.ieee802154_packet, ptr %180, i32 0, i32 28
  %182 = load i64, ptr %181, align 8
  %183 = call ptr @proto_tree_add_uint64(ptr noundef %175, i32 noundef %176, ptr noundef %177, i32 noundef %179, i32 noundef 8, i64 noundef %182)
  %184 = load ptr, ptr %11, align 8
  %185 = load i32, ptr @hf_ieee802154_aux_sec_key_source_bytes, align 4
  %186 = load ptr, ptr %6, align 8
  %187 = load ptr, ptr %10, align 8
  %188 = load i32, ptr %187, align 4
  %189 = call ptr @proto_tree_add_item(ptr noundef %184, i32 noundef %185, ptr noundef %186, i32 noundef %188, i32 noundef 8, i32 noundef 0)
  store ptr %189, ptr %14, align 8
  %190 = load ptr, ptr %14, align 8
  call void @proto_item_set_hidden(ptr noundef %190)
  %191 = load ptr, ptr %13, align 8
  call void @proto_item_set_len(ptr noundef %191, i32 noundef 9)
  %192 = load ptr, ptr %10, align 8
  %193 = load i32, ptr %192, align 4
  %194 = add i32 %193, 8
  store i32 %194, ptr %192, align 4
  br label %195

195:                                              ; preds = %168, %163
  %196 = load ptr, ptr %6, align 8
  %197 = load ptr, ptr %10, align 8
  %198 = load i32, ptr %197, align 4
  %199 = call zeroext i8 @tvb_get_uint8(ptr noundef %196, i32 noundef %198)
  %200 = load ptr, ptr %9, align 8
  %201 = getelementptr inbounds nuw %struct.ieee802154_packet, ptr %200, i32 0, i32 29
  store i8 %199, ptr %201, align 8
  %202 = load ptr, ptr %11, align 8
  %203 = load i32, ptr @hf_ieee802154_aux_sec_key_index, align 4
  %204 = load ptr, ptr %6, align 8
  %205 = load ptr, ptr %10, align 8
  %206 = load i32, ptr %205, align 4
  %207 = load ptr, ptr %9, align 8
  %208 = getelementptr inbounds nuw %struct.ieee802154_packet, ptr %207, i32 0, i32 29
  %209 = load i8, ptr %208, align 8
  %210 = zext i8 %209 to i32
  %211 = call ptr @proto_tree_add_uint(ptr noundef %202, i32 noundef %203, ptr noundef %204, i32 noundef %206, i32 noundef 1, i32 noundef %210)
  %212 = load ptr, ptr %10, align 8
  %213 = load i32, ptr %212, align 4
  %214 = add i32 %213, 1
  store i32 %214, ptr %212, align 4
  br label %215

215:                                              ; preds = %195, %119
  call void @llvm.lifetime.end.p0(i64 4, ptr %16) #17
  call void @llvm.lifetime.end.p0(i64 1, ptr %15) #17
  call void @llvm.lifetime.end.p0(i64 8, ptr %14) #17
  call void @llvm.lifetime.end.p0(i64 8, ptr %13) #17
  call void @llvm.lifetime.end.p0(i64 8, ptr %12) #17
  call void @llvm.lifetime.end.p0(i64 8, ptr %11) #17
  ret void
}