; Function Attrs: null_pointer_is_valid sspstrong uwtable
define hidden void @dissect_ieee802154_aux_sec_header_and_key(ptr noundef %0, ptr readnone captures(none) %1, ptr noundef %2, ptr noundef initializes((64, 72)) %3, ptr noundef captures(none) %4) local_unnamed_addr #0 {
  %6 = alloca ptr, align 8
  call void @llvm.lifetime.start.p0(i64 8, ptr nonnull %6) #19
  %7 = load i32, ptr %4, align 4
  %8 = tail call zeroext i8 @tvb_get_uint8(ptr noundef %0, i32 noundef %7)
  %9 = zext i8 %8 to i32
  %10 = and i32 %9, 7
  %11 = getelementptr inbounds nuw i8, ptr %3, i64 64
  store i32 %10, ptr %11, align 8
  %12 = lshr i32 %9, 3
  %13 = and i32 %12, 3
  %14 = getelementptr inbounds nuw i8, ptr %3, i64 68
  store i32 %13, ptr %14, align 4
  %15 = load i32, ptr %3, align 8
  %16 = icmp eq i32 %15, 2
  %17 = getelementptr inbounds nuw i8, ptr %3, i64 72
  br i1 %16, label %18, label %._crit_edge

._crit_edge:                                      ; preds = %5
  %.pre = load i8, ptr %17, align 8, !range !6
  br label %20

18:                                               ; preds = %5
  %19 = lshr i8 %8, 5
  %.lobit = and i8 %19, 1
  store i8 %.lobit, ptr %17, align 8
  br label %20

20:                                               ; preds = %._crit_edge, %18
  %21 = phi i8 [ %.pre, %._crit_edge ], [ %.lobit, %18 ]
  %22 = getelementptr inbounds nuw i8, ptr %3, i64 72
  %23 = trunc nuw i8 %21 to i1
  %spec.select = select i1 %23, i32 1, i32 5
  %.not = icmp ne i32 %13, 0
  %24 = zext i1 %.not to i32
  %.1 = add nuw nsw i32 %spec.select, %24
  %25 = icmp eq i32 %13, 2
  %26 = add nuw nsw i32 %.1, 4
  %.2 = select i1 %25, i32 %26, i32 %.1
  %27 = icmp eq i32 %13, 3
  %28 = add nuw nsw i32 %.2, 8
  %.3 = select i1 %27, i32 %28, i32 %.2
  %29 = load i32, ptr @hf_ieee802154_aux_security_header, align 4
  %30 = load i32, ptr %4, align 4
  %31 = tail call ptr @proto_tree_add_item(ptr noundef %2, i32 noundef %29, ptr noundef %0, i32 noundef %30, i32 noundef %.3, i32 noundef 0)
  store ptr %31, ptr %6, align 8
  %32 = load i32, ptr @ett_ieee802154_auxiliary_security, align 4
  %33 = tail call ptr @proto_item_add_subtree(ptr noundef %31, i32 noundef %32)
  %34 = load i32, ptr %4, align 4
  %35 = load i32, ptr @hf_ieee802154_aux_sec_security_control, align 4
  %36 = load i32, ptr @ett_ieee802154_aux_sec_control, align 4
  %37 = tail call ptr @proto_tree_add_bitmask(ptr noundef %33, ptr noundef %0, i32 noundef %34, i32 noundef %35, i32 noundef %36, ptr noundef nonnull @dissect_ieee802154_aux_sec_header_and_key.security_fields, i32 noundef 0)
  %38 = load i32, ptr %4, align 4
  %39 = add i32 %38, 1
  store i32 %39, ptr %4, align 4
  %40 = load i8, ptr %22, align 8, !range !6, !noundef !7
  %41 = trunc nuw i8 %40 to i1
  br i1 %41, label %48, label %42

42:                                               ; preds = %20
  %43 = load i32, ptr @hf_ieee802154_aux_sec_frame_counter, align 4
  %44 = getelementptr inbounds nuw i8, ptr %3, i64 76
  %45 = tail call ptr @proto_tree_add_item_ret_uint(ptr noundef %33, i32 noundef %43, ptr noundef %0, i32 noundef %39, i32 noundef 4, i32 noundef -2147483648, ptr noundef nonnull %44)
  %46 = load i32, ptr %4, align 4
  %47 = add i32 %46, 4
  store i32 %47, ptr %4, align 4
  br label %51

48:                                               ; preds = %20
  %49 = load i64, ptr @ieee802154_tsch_asn, align 8
  %50 = getelementptr inbounds nuw i8, ptr %3, i64 88
  store i64 %49, ptr %50, align 8
  br label %51

51:                                               ; preds = %48, %42
  %52 = load i32, ptr %14, align 4
  %.not69 = icmp eq i32 %52, 0
  br i1 %.not69, label %111, label %53

53:                                               ; preds = %51
  %54 = load i32, ptr %4, align 4
  %55 = load i32, ptr @ett_ieee802154_aux_sec_key_id, align 4
  %56 = call ptr @proto_tree_add_subtree(ptr noundef %33, ptr noundef %0, i32 noundef %54, i32 noundef 1, i32 noundef %55, ptr noundef nonnull %6, ptr noundef nonnull @.str.17)
  %57 = load i32, ptr %14, align 4
  %58 = icmp eq i32 %57, 2
  %.pre73.pre = load i32, ptr %4, align 4
  br i1 %58, label %59, label %79

59:                                               ; preds = %53
  %60 = call i32 @tvb_get_ntohl(ptr noundef %0, i32 noundef %.pre73.pre)
  %61 = getelementptr inbounds nuw i8, ptr %3, i64 96
  store i32 %60, ptr %61, align 8
  %62 = load i32, ptr @hf_ieee802154_aux_sec_key_source, align 4
  %63 = load i32, ptr %4, align 4
  %64 = zext i32 %60 to i64
  %65 = call ptr @proto_tree_add_uint64(ptr noundef %56, i32 noundef %62, ptr noundef %0, i32 noundef %63, i32 noundef 4, i64 noundef %64)
  %66 = load i32, ptr @hf_ieee802154_aux_sec_key_source_bytes, align 4
  %67 = load i32, ptr %4, align 4
  %68 = call ptr @proto_tree_add_item(ptr noundef %56, i32 noundef %66, ptr noundef %0, i32 noundef %67, i32 noundef 4, i32 noundef 0)
  %.not.i = icmp eq ptr %68, null
  br i1 %.not.i, label %proto_item_set_hidden.exit, label %69

69:                                               ; preds = %59
  %70 = getelementptr inbounds nuw i8, ptr %68, i64 40
  %71 = load ptr, ptr %70, align 8
  %.not5.i = icmp eq ptr %71, null
  br i1 %.not5.i, label %proto_item_set_hidden.exit, label %72

72:                                               ; preds = %69
  %73 = getelementptr inbounds nuw i8, ptr %71, i64 28
  %74 = load i32, ptr %73, align 4
  %75 = or i32 %74, 1
  store i32 %75, ptr %73, align 4
  br label %proto_item_set_hidden.exit

proto_item_set_hidden.exit:                       ; preds = %59, %69, %72
  %76 = load ptr, ptr %6, align 8
  call void @proto_item_set_len(ptr noundef %76, i32 noundef 5)
  %77 = load i32, ptr %4, align 4
  %78 = add i32 %77, 4
  store i32 %78, ptr %4, align 4
  %.pr = load i32, ptr %14, align 4
  br label %79

79:                                               ; preds = %proto_item_set_hidden.exit, %53
  %.pre73 = phi i32 [ %78, %proto_item_set_hidden.exit ], [ %.pre73.pre, %53 ]
  %80 = phi i32 [ %.pr, %proto_item_set_hidden.exit ], [ %57, %53 ]
  %81 = icmp eq i32 %80, 3
  br i1 %81, label %82, label %101

82:                                               ; preds = %79
  %83 = call i64 @tvb_get_ntoh64(ptr noundef %0, i32 noundef %.pre73)
  %84 = getelementptr inbounds nuw i8, ptr %3, i64 96
  store i64 %83, ptr %84, align 8
  %85 = load i32, ptr @hf_ieee802154_aux_sec_key_source, align 4
  %86 = load i32, ptr %4, align 4
  %87 = call ptr @proto_tree_add_uint64(ptr noundef %56, i32 noundef %85, ptr noundef %0, i32 noundef %86, i32 noundef 8, i64 noundef %83)
  %88 = load i32, ptr @hf_ieee802154_aux_sec_key_source_bytes, align 4
  %89 = load i32, ptr %4, align 4
  %90 = call ptr @proto_tree_add_item(ptr noundef %56, i32 noundef %88, ptr noundef %0, i32 noundef %89, i32 noundef 8, i32 noundef 0)
  %.not.i70 = icmp eq ptr %90, null
  br i1 %.not.i70, label %proto_item_set_hidden.exit72, label %91

91:                                               ; preds = %82
  %92 = getelementptr inbounds nuw i8, ptr %90, i64 40
  %93 = load ptr, ptr %92, align 8
  %.not5.i71 = icmp eq ptr %93, null
  br i1 %.not5.i71, label %proto_item_set_hidden.exit72, label %94

94:                                               ; preds = %91
  %95 = getelementptr inbounds nuw i8, ptr %93, i64 28
  %96 = load i32, ptr %95, align 4
  %97 = or i32 %96, 1
  store i32 %97, ptr %95, align 4
  br label %proto_item_set_hidden.exit72

proto_item_set_hidden.exit72:                     ; preds = %82, %91, %94
  %98 = load ptr, ptr %6, align 8
  call void @proto_item_set_len(ptr noundef %98, i32 noundef 9)
  %99 = load i32, ptr %4, align 4
  %100 = add i32 %99, 8
  store i32 %100, ptr %4, align 4
  br label %101

101:                                              ; preds = %proto_item_set_hidden.exit72, %79
  %102 = phi i32 [ %100, %proto_item_set_hidden.exit72 ], [ %.pre73, %79 ]
  %103 = call zeroext i8 @tvb_get_uint8(ptr noundef %0, i32 noundef %102)
  %104 = getelementptr inbounds nuw i8, ptr %3, i64 104
  store i8 %103, ptr %104, align 8
  %105 = load i32, ptr @hf_ieee802154_aux_sec_key_index, align 4
  %106 = load i32, ptr %4, align 4
  %107 = zext i8 %103 to i32
  %108 = call ptr @proto_tree_add_uint(ptr noundef %56, i32 noundef %105, ptr noundef %0, i32 noundef %106, i32 noundef 1, i32 noundef %107)
  %109 = load i32, ptr %4, align 4
  %110 = add i32 %109, 1
  store i32 %110, ptr %4, align 4
  br label %111

111:                                              ; preds = %101, %51
  call void @llvm.lifetime.end.p0(i64 8, ptr nonnull %6) #19
  ret void
}